; Function Attrs: mustprogress uwtable
define internal void @"_ZZNK7rocksdb24CompressedSecondaryCache9GetHelperEbEN3$_18__invokeEPvPNS_15MemoryAllocatorE"(ptr noundef %obj, ptr nocapture readnone %0) #0 align 2 personality ptr @__gxx_personality_v0 {
entry:
  %isnull.i = icmp eq ptr %obj, null
  br i1 %isnull.i, label %"_ZZNK7rocksdb24CompressedSecondaryCache9GetHelperEbENK3$_1clEPvPNS_15MemoryAllocatorE.exit", label %delete.notnull.i

delete.notnull.i:                                 ; preds = %entry
  %add.ptr.i.i.i.i.i.i = getelementptr inbounds i8, ptr %obj, i64 8
  %1 = load ptr, ptr %add.ptr.i.i.i.i.i.i, align 8
  %cmp.not.i.i = icmp eq ptr %1, null
  br i1 %cmp.not.i.i, label %_ZNSt10unique_ptrIA_cN7rocksdb13CustomDeleterEED2Ev.exit.i, label %if.then.i.i

if.then.i.i:                                      ; preds = %delete.notnull.i
  %2 = load ptr, ptr %obj, align 8
  %tobool.not.i.i.i = icmp eq ptr %2, null
  br i1 %tobool.not.i.i.i, label %delete.notnull.i.i.i, label %if.then.i.i.i

if.then.i.i.i:                                    ; preds = %if.then.i.i
  %vtable.i.i.i = load ptr, ptr %2, align 8
  %vfn.i.i.i = getelementptr inbounds i8, ptr %vtable.i.i.i, i64 160
  %3 = load ptr, ptr %vfn.i.i.i, align 8
  invoke void %3(ptr noundef nonnull align 8 dereferenceable(32) %2, ptr noundef nonnull %1)
          to label %_ZNSt10unique_ptrIA_cN7rocksdb13CustomDeleterEED2Ev.exit.i unwind label %terminate.lpad.i.i

delete.notnull.i.i.i:                             ; preds = %if.then.i.i
  tail call void @_ZdaPv(ptr noundef nonnull %1) #20
  br label %_ZNSt10unique_ptrIA_cN7rocksdb13CustomDeleterEED2Ev.exit.i

terminate.lpad.i.i:                               ; preds = %if.then.i.i.i
  %4 = landingpad { ptr, i32 }
          catch ptr null
  %5 = extractvalue { ptr, i32 } %4, 0
  tail call void @__clang_call_terminate(ptr %5) #22
  unreachable

_ZNSt10unique_ptrIA_cN7rocksdb13CustomDeleterEED2Ev.exit.i: ; preds = %delete.notnull.i.i.i, %if.then.i.i.i, %delete.notnull.i
  tail call void @_ZdlPv(ptr noundef nonnull %obj) #20
  br label %"_ZZNK7rocksdb24CompressedSecondaryCache9GetHelperEbENK3$_1clEPvPNS_15MemoryAllocatorE.exit"

"_ZZNK7rocksdb24CompressedSecondaryCache9GetHelperEbENK3$_1clEPvPNS_15MemoryAllocatorE.exit": ; preds = %entry, %_ZNSt10unique_ptrIA_cN7rocksdb13CustomDeleterEED2Ev.exit.i
  ret void
}